target datalayout = "e-m:e-p270:32:32-p271:32:32-p272:64:64-i64:64-i128:128-f80:128-n8:16:32:64-S128"
target triple = "x86_64-unknown-linux-gnu"

%"struct.std::atomic" = type { %"struct.std::__atomic_base" }
%"struct.std::__atomic_base" = type { i8 }

; Function Attrs: mustprogress nounwind uwtable
define linkonce_odr noundef i32 @_ZStanSt12memory_orderSt23__memory_order_modifier(i32 noundef %__m, i32 noundef %__mod) #0 comdat {
entry:
  %__m.addr = alloca i32, align 4
  %__mod.addr = alloca i32, align 4
  store i32 %__m, ptr %__m.addr, align 4
  store i32 %__mod, ptr %__mod.addr, align 4
  %0 = load i32, ptr %__m.addr, align 4
  %1 = load i32, ptr %__mod.addr, align 4
  %and = and i32 %0, %1
  ret i32 %and
}

; Function Attrs: mustprogress nounwind uwtable
define linkonce_odr noundef zeroext i1 @_ZNKSt6atomicIbE4loadESt12memory_order(ptr noundef nonnull align 1 dereferenceable(1) %this, i32 noundef %__m) #0 comdat align 2 {
entry:
  %this.addr.i = alloca ptr, align 8
  %__m.addr.i = alloca i32, align 4
  %__b.i = alloca i32, align 4
  %atomic-temp.i = alloca i8, align 1
  %this.addr = alloca ptr, align 8
  %__m.addr = alloca i32, align 4
  store ptr %this, ptr %this.addr, align 8
  store i32 %__m, ptr %__m.addr, align 4
  %this1 = load ptr, ptr %this.addr, align 8
  %_M_base = getelementptr inbounds %"struct.std::atomic", ptr %this1, i32 0, i32 0
  %0 = load i32, ptr %__m.addr, align 4
  store ptr %_M_base, ptr %this.addr.i, align 8
  store i32 %0, ptr %__m.addr.i, align 4
  %this1.i = load ptr, ptr %this.addr.i, align 8
  %1 = load i32, ptr %__m.addr.i, align 4
  %call.i = call noundef i32 @_ZStanSt12memory_orderSt23__memory_order_modifier(i32 noundef %1, i32 noundef 65535)
  store i32 %call.i, ptr %__b.i, align 4
  %2 = load i32, ptr %__m.addr.i, align 4
  switch i32 %2, label %monotonic.i [
    i32 1, label %acquire.i
    i32 2, label %acquire.i
    i32 5, label %seqcst.i
  ]

monotonic.i:                                      ; preds = %entry
  %3 = load atomic i8, ptr %this1.i monotonic, align 1
  store i8 %3, ptr %atomic-temp.i, align 1
  br label %_ZNKSt13__atomic_baseIbE4loadESt12memory_order.exit

acquire.i:                                        ; preds = %entry, %entry
  %4 = load atomic i8, ptr %this1.i acquire, align 1
  store i8 %4, ptr %atomic-temp.i, align 1
  br label %_ZNKSt13__atomic_baseIbE4loadESt12memory_order.exit

seqcst.i:                                         ; preds = %entry
  %5 = load atomic i8, ptr %this1.i seq_cst, align 1
  store i8 %5, ptr %atomic-temp.i, align 1
  br label %_ZNKSt13__atomic_baseIbE4loadESt12memory_order.exit

_ZNKSt13__atomic_baseIbE4loadESt12memory_order.exit: ; preds = %seqcst.i, %acquire.i, %monotonic.i
  %6 = load i8, ptr %atomic-temp.i, align 1
  %tobool.i = trunc i8 %6 to i1
  ret i1 %tobool.i
}

; Function Attrs: mustprogress nounwind uwtable
define internal void @_ZN6hermes3hbcL6warmupEPKhjPSt6atomicIbE(ptr noundef %data, i32 noundef %size, ptr noundef %abortFlag) #0 {
entry:
  %data.addr = alloca ptr, align 8
  %size.addr = alloca i32, align 4
  %abortFlag.addr = alloca ptr, align 8
  %PS = alloca i32, align 4
  %kAbortCheckInterval = alloca i32, align 4
  %nextAbortCheckPoint = alloca i32, align 4
  %i = alloca i32, align 4
  store ptr %data, ptr %data.addr, align 8
  store i32 %size, ptr %size.addr, align 4
  store ptr %abortFlag, ptr %abortFlag.addr, align 8
  %call = call noundef i64 @_ZN6hermes8oscompat9page_sizeEv()
  %conv = trunc i64 %call to i32
  store i32 %conv, ptr %PS, align 4
  %0 = load i32, ptr %PS, align 4
  %mul = mul i32 64, %0
  store i32 %mul, ptr %kAbortCheckInterval, align 4
  %1 = load i32, ptr %kAbortCheckInterval, align 4
  store i32 %1, ptr %nextAbortCheckPoint, align 4
  store i32 0, ptr %i, align 4
  br label %for.cond

for.cond:                                         ; preds = %for.inc, %entry
  %2 = load i32, ptr %i, align 4
  %3 = load i32, ptr %size.addr, align 4
  %cmp = icmp ult i32 %2, %3
  br i1 %cmp, label %for.body, label %for.end

for.body:                                         ; preds = %for.cond
  %4 = load ptr, ptr %data.addr, align 8
  %5 = load i32, ptr %i, align 4
  %idxprom = zext i32 %5 to i64
  %arrayidx = getelementptr inbounds i8, ptr %4, i64 %idxprom
  %6 = load volatile i8, ptr %arrayidx, align 1
  %7 = load i32, ptr %i, align 4
  %8 = load i32, ptr %nextAbortCheckPoint, align 4
  %cmp1 = icmp uge i32 %7, %8
  br i1 %cmp1, label %if.then, label %if.end4

if.then:                                          ; preds = %for.body
  %9 = load ptr, ptr %abortFlag.addr, align 8
  %call2 = call noundef zeroext i1 @_ZNKSt6atomicIbE4loadESt12memory_order(ptr noundef nonnull align 1 dereferenceable(1) %9, i32 noundef 2) #12
  br i1 %call2, label %if.then3, label %if.end

if.then3:                                         ; preds = %if.then
  br label %for.end

if.end:                                           ; preds = %if.then
  %10 = load i32, ptr %kAbortCheckInterval, align 4
  %11 = load i32, ptr %nextAbortCheckPoint, align 4
  %add = add i32 %11, %10
  store i32 %add, ptr %nextAbortCheckPoint, align 4
  br label %if.end4

if.end4:                                          ; preds = %if.end, %for.body
  br label %for.inc

for.inc:                                          ; preds = %if.end4
  %12 = load i32, ptr %PS, align 4
  %13 = load i32, ptr %i, align 4
  %add5 = add i32 %13, %12
  store i32 %add5, ptr %i, align 4
  br label %for.cond, !llvm.loop !7

for.end:                                          ; preds = %if.then3, %for.cond
  ret void
}