; Function Attrs: mustprogress nounwind uwtable
define internal void @_ZN6hermes3hbcL6warmupEPKhjPSt6atomicIbE(ptr noundef %data, i32 noundef %size, ptr nocapture noundef readonly %abortFlag) #0 {
entry:
  %call = tail call noundef i64 @_ZN6hermes8oscompat9page_sizeEv() #19
  %conv = trunc i64 %call to i32
  %mul = shl i32 %conv, 6
  %cmp7.not = icmp eq i32 %size, 0
  br i1 %cmp7.not, label %for.end, label %for.body

for.body:                                         ; preds = %entry, %for.inc
  %i.09 = phi i32 [ %add5, %for.inc ], [ 0, %entry ]
  %nextAbortCheckPoint.08 = phi i32 [ %nextAbortCheckPoint.1, %for.inc ], [ %mul, %entry ]
  %idxprom = zext i32 %i.09 to i64
  %arrayidx = getelementptr inbounds i8, ptr %data, i64 %idxprom
  %0 = load volatile i8, ptr %arrayidx, align 1
  %cmp1.not = icmp ult i32 %i.09, %nextAbortCheckPoint.08
  br i1 %cmp1.not, label %for.inc, label %if.then

if.then:                                          ; preds = %for.body
  %1 = load atomic i8, ptr %abortFlag acquire, align 1
  %2 = and i8 %1, 1
  %tobool.i.i.not = icmp eq i8 %2, 0
  br i1 %tobool.i.i.not, label %if.end, label %for.end

if.end:                                           ; preds = %if.then
  %add = add i32 %nextAbortCheckPoint.08, %mul
  br label %for.inc

for.inc:                                          ; preds = %for.body, %if.end
  %nextAbortCheckPoint.1 = phi i32 [ %add, %if.end ], [ %nextAbortCheckPoint.08, %for.body ]
  %add5 = add i32 %i.09, %conv
  %cmp = icmp ult i32 %add5, %size
  br i1 %cmp, label %for.body, label %for.end, !llvm.loop !10

for.end:                                          ; preds = %for.inc, %if.then, %entry
  ret void
}